target datalayout = "e-m:e-p270:32:32-p271:32:32-p272:64:64-i64:64-i128:128-f80:128-n8:16:32:64-S128"
target triple = "x86_64-pc-linux-gnu"

; Function Attrs: nounwind uwtable
define dso_local i32 @archive_utility_string_sort(ptr noundef %0) #0 {
  %2 = alloca ptr, align 8
  %3 = alloca i32, align 4
  store ptr %0, ptr %2, align 8, !tbaa !32
  call void @llvm.lifetime.start.p0(i64 4, ptr %3) #9
  store i32 0, ptr %3, align 4, !tbaa !23
  br label %4

4:                                                ; preds = %11, %1
  %5 = load ptr, ptr %2, align 8, !tbaa !32
  %6 = load i32, ptr %3, align 4, !tbaa !23
  %7 = zext i32 %6 to i64
  %8 = getelementptr inbounds nuw ptr, ptr %5, i64 %7
  %9 = load ptr, ptr %8, align 8, !tbaa !24
  %10 = icmp ne ptr %9, null
  br i1 %10, label %11, label %14

11:                                               ; preds = %4
  %12 = load i32, ptr %3, align 4, !tbaa !23
  %13 = add i32 %12, 1
  store i32 %13, ptr %3, align 4, !tbaa !23
  br label %4, !llvm.loop !34

14:                                               ; preds = %4
  %15 = load ptr, ptr %2, align 8, !tbaa !32
  %16 = load i32, ptr %3, align 4, !tbaa !23
  %17 = call i32 @archive_utility_string_sort_helper(ptr noundef %15, i32 noundef %16)
  call void @llvm.lifetime.end.p0(i64 4, ptr %3) #9
  ret i32 %17
}