; Function Attrs: nounwind uwtable
define dso_local range(i32 -30, 1) i32 @archive_utility_string_sort(ptr noundef captures(none) %0) local_unnamed_addr #0 {
  br label %2

2:                                                ; preds = %2, %1
  %.0 = phi i32 [ 0, %1 ], [ %6, %2 ]
  %3 = zext i32 %.0 to i64
  %4 = getelementptr inbounds nuw ptr, ptr %0, i64 %3
  %5 = load ptr, ptr %4, align 8, !tbaa !24
  %.not = icmp eq ptr %5, null
  %6 = add i32 %.0, 1
  br i1 %.not, label %7, label %2, !llvm.loop !25

7:                                                ; preds = %2
  %8 = tail call fastcc i32 @archive_utility_string_sort_helper(ptr noundef nonnull %0, i32 noundef %.0)
  ret i32 %8
}